target datalayout = "e-m:e-p270:32:32-p271:32:32-p272:64:64-i64:64-i128:128-f80:128-n8:16:32:64-S128"
target triple = "x86_64-pc-linux-gnu"

%struct._Node = type { %union.anon }
%union.anon = type { %struct.StrNode }
%struct.StrNode = type { %struct.NodeBase, ptr, ptr, i32, i32, [24 x i8] }
%struct.NodeBase = type { i32 }
%struct.EncloseNode = type { %struct.NodeBase, i32, i32, i32, i32, i32, ptr, i64, i64, i32, i32 }

; Function Attrs: alwaysinline nounwind
define internal ptr @memcpy.inline(ptr noalias nonnull %0, ptr noalias nonnull %1, i64 %2) #2 {
  %4 = alloca ptr, align 8
  %5 = alloca ptr, align 8
  %6 = alloca i64, align 8
  store ptr %0, ptr %4, align 8, !tbaa !12
  store ptr %1, ptr %5, align 8, !tbaa !12
  store i64 %2, ptr %6, align 8, !tbaa !15
  %7 = load ptr, ptr %4, align 8, !tbaa !12
  %8 = load ptr, ptr %5, align 8, !tbaa !12
  %9 = load i64, ptr %6, align 8, !tbaa !15
  %10 = load ptr, ptr %4, align 8, !tbaa !12
  %11 = call i64 @llvm.objectsize.i64.p0(ptr %10, i1 false, i1 true, i1 false)
  %12 = call ptr @__memcpy_chk(ptr noundef %7, ptr noundef %8, i64 noundef %9, i64 noundef %11) #13
  ret ptr %12
}

; Function Attrs: nounwind sspstrong uwtable
define internal ptr @node_new() #0 {
  %1 = alloca ptr, align 8
  call void @llvm.lifetime.start.p0(i64 8, ptr %1) #13
  %2 = call noalias ptr @malloc(i64 noundef 56) #14
  store ptr %2, ptr %1, align 8, !tbaa !68
  %3 = load ptr, ptr %1, align 8, !tbaa !68
  call void @llvm.lifetime.end.p0(i64 8, ptr %1) #13
  ret ptr %3
}

; Function Attrs: nounwind sspstrong uwtable
define internal ptr @node_new_enclose(i32 noundef %0) #0 {
  %2 = alloca ptr, align 8
  %3 = alloca i32, align 4
  %4 = alloca ptr, align 8
  %5 = alloca i32, align 4
  %6 = alloca i32, align 4
  store i32 %0, ptr %3, align 4, !tbaa !13
  call void @llvm.lifetime.start.p0(i64 8, ptr %4) #13
  %7 = call ptr @node_new()
  store ptr %7, ptr %4, align 8, !tbaa !68
  %8 = load ptr, ptr %4, align 8, !tbaa !68
  %9 = icmp eq ptr %8, null
  br i1 %9, label %10, label %11

10:                                               ; preds = %1
  store ptr null, ptr %2, align 8
  store i32 1, ptr %5, align 4
  br label %42

11:                                               ; preds = %1
  br label %12

12:                                               ; preds = %11
  call void @llvm.lifetime.start.p0(i64 4, ptr %6) #13
  store i32 6, ptr %6, align 4, !tbaa !13
  %13 = load ptr, ptr %4, align 8, !tbaa !68
  %14 = getelementptr inbounds nuw %struct._Node, ptr %13, i32 0, i32 0
  %15 = getelementptr inbounds nuw %struct.NodeBase, ptr %14, i32 0, i32 0
  %16 = call ptr @memcpy.inline(ptr noundef %15, ptr noundef %6, i64 noundef 4) #13
  call void @llvm.lifetime.end.p0(i64 4, ptr %6) #13
  br label %17

17:                                               ; preds = %12
  br label %18

18:                                               ; preds = %17
  %19 = load i32, ptr %3, align 4, !tbaa !13
  %20 = load ptr, ptr %4, align 8, !tbaa !68
  %21 = getelementptr inbounds nuw %struct._Node, ptr %20, i32 0, i32 0
  %22 = getelementptr inbounds nuw %struct.EncloseNode, ptr %21, i32 0, i32 2
  store i32 %19, ptr %22, align 8, !tbaa !17
  %23 = load ptr, ptr %4, align 8, !tbaa !68
  %24 = getelementptr inbounds nuw %struct._Node, ptr %23, i32 0, i32 0
  %25 = getelementptr inbounds nuw %struct.EncloseNode, ptr %24, i32 0, i32 1
  store i32 0, ptr %25, align 4, !tbaa !17
  %26 = load ptr, ptr %4, align 8, !tbaa !68
  %27 = getelementptr inbounds nuw %struct._Node, ptr %26, i32 0, i32 0
  %28 = getelementptr inbounds nuw %struct.EncloseNode, ptr %27, i32 0, i32 3
  store i32 0, ptr %28, align 4, !tbaa !17
  %29 = load ptr, ptr %4, align 8, !tbaa !68
  %30 = getelementptr inbounds nuw %struct._Node, ptr %29, i32 0, i32 0
  %31 = getelementptr inbounds nuw %struct.EncloseNode, ptr %30, i32 0, i32 4
  store i32 0, ptr %31, align 8, !tbaa !17
  %32 = load ptr, ptr %4, align 8, !tbaa !68
  %33 = getelementptr inbounds nuw %struct._Node, ptr %32, i32 0, i32 0
  %34 = getelementptr inbounds nuw %struct.EncloseNode, ptr %33, i32 0, i32 6
  store ptr null, ptr %34, align 8, !tbaa !17
  %35 = load ptr, ptr %4, align 8, !tbaa !68
  %36 = getelementptr inbounds nuw %struct._Node, ptr %35, i32 0, i32 0
  %37 = getelementptr inbounds nuw %struct.EncloseNode, ptr %36, i32 0, i32 5
  store i32 -1, ptr %37, align 4, !tbaa !17
  %38 = load ptr, ptr %4, align 8, !tbaa !68
  %39 = getelementptr inbounds nuw %struct._Node, ptr %38, i32 0, i32 0
  %40 = getelementptr inbounds nuw %struct.EncloseNode, ptr %39, i32 0, i32 10
  store i32 0, ptr %40, align 4, !tbaa !17
  %41 = load ptr, ptr %4, align 8, !tbaa !68
  store ptr %41, ptr %2, align 8
  store i32 1, ptr %5, align 4
  br label %42

42:                                               ; preds = %18, %10
  call void @llvm.lifetime.end.p0(i64 8, ptr %4) #13
  %43 = load ptr, ptr %2, align 8
  ret ptr %43
}

; Function Attrs: nounwind sspstrong uwtable
define internal ptr @node_new_enclose_memory(i32 noundef %0, i32 noundef %1) #0 {
  %3 = alloca ptr, align 8
  %4 = alloca i32, align 4
  %5 = alloca i32, align 4
  %6 = alloca ptr, align 8
  %7 = alloca i32, align 4
  store i32 %0, ptr %4, align 4, !tbaa !13
  store i32 %1, ptr %5, align 4, !tbaa !13
  call void @llvm.lifetime.start.p0(i64 8, ptr %6) #13
  %8 = call ptr @node_new_enclose(i32 noundef 1)
  store ptr %8, ptr %6, align 8, !tbaa !68
  %9 = load ptr, ptr %6, align 8, !tbaa !68
  %10 = icmp eq ptr %9, null
  br i1 %10, label %11, label %12

11:                                               ; preds = %2
  store ptr null, ptr %3, align 8
  store i32 1, ptr %7, align 4
  br label %27

12:                                               ; preds = %2
  %13 = load i32, ptr %5, align 4, !tbaa !13
  %14 = icmp ne i32 %13, 0
  br i1 %14, label %15, label %21

15:                                               ; preds = %12
  %16 = load ptr, ptr %6, align 8, !tbaa !68
  %17 = getelementptr inbounds nuw %struct._Node, ptr %16, i32 0, i32 0
  %18 = getelementptr inbounds nuw %struct.EncloseNode, ptr %17, i32 0, i32 1
  %19 = load i32, ptr %18, align 4, !tbaa !17
  %20 = or i32 %19, 1024
  store i32 %20, ptr %18, align 4, !tbaa !17
  br label %21

21:                                               ; preds = %15, %12
  %22 = load i32, ptr %4, align 4, !tbaa !13
  %23 = load ptr, ptr %6, align 8, !tbaa !68
  %24 = getelementptr inbounds nuw %struct._Node, ptr %23, i32 0, i32 0
  %25 = getelementptr inbounds nuw %struct.EncloseNode, ptr %24, i32 0, i32 4
  store i32 %22, ptr %25, align 8, !tbaa !17
  %26 = load ptr, ptr %6, align 8, !tbaa !68
  store ptr %26, ptr %3, align 8
  store i32 1, ptr %7, align 4
  br label %27

27:                                               ; preds = %21, %11
  call void @llvm.lifetime.end.p0(i64 8, ptr %6) #13
  %28 = load ptr, ptr %3, align 8
  ret ptr %28
}