; Function Attrs: mustprogress nofree nounwind sspstrong willreturn memory(write, argmem: none, inaccessiblemem: readwrite) uwtable
define internal fastcc noalias noundef ptr @node_new_enclose_memory(i32 noundef %0, i32 noundef range(i32 0, 2) %1) unnamed_addr #13 {
  %3 = tail call noalias noundef dereferenceable_or_null(56) ptr @malloc(i64 noundef 56) #26
  %4 = icmp eq ptr %3, null
  br i1 %4, label %node_new_enclose.exit.thread, label %5

5:                                                ; preds = %2
  store i32 6, ptr %3, align 1
  %6 = getelementptr inbounds nuw i8, ptr %3, i64 8
  store i32 1, ptr %6, align 8, !tbaa !13
  %7 = getelementptr inbounds nuw i8, ptr %3, i64 4
  store i32 0, ptr %7, align 4, !tbaa !13
  %8 = getelementptr inbounds nuw i8, ptr %3, i64 12
  store i32 0, ptr %8, align 4, !tbaa !13
  %9 = getelementptr inbounds nuw i8, ptr %3, i64 16
  %10 = getelementptr inbounds nuw i8, ptr %3, i64 24
  store ptr null, ptr %10, align 8, !tbaa !13
  %11 = getelementptr inbounds nuw i8, ptr %3, i64 20
  store i32 -1, ptr %11, align 4, !tbaa !13
  %12 = getelementptr inbounds nuw i8, ptr %3, i64 52
  store i32 0, ptr %12, align 4, !tbaa !13
  %.not = icmp eq i32 %1, 0
  br i1 %.not, label %14, label %13

13:                                               ; preds = %5
  store i32 1024, ptr %7, align 4, !tbaa !13
  br label %14

14:                                               ; preds = %13, %5
  store i32 %0, ptr %9, align 8, !tbaa !13
  br label %node_new_enclose.exit.thread

node_new_enclose.exit.thread:                     ; preds = %2, %14
  ret ptr %3
}